; Function Attrs: mustprogress nofree norecurse nosync nounwind willreturn memory(read, inaccessiblemem: none) uwtable
define internal range(i32 0, 100) i32 @dds_probe(ptr noundef readonly captures(none) %0) #8 {
  %2 = getelementptr inbounds nuw i8, ptr %0, i64 8
  %3 = load ptr, ptr %2, align 8, !tbaa !90
  %4 = load i64, ptr %3, align 1, !tbaa !68
  %5 = icmp eq i64 %4, 533118272580
  br i1 %5, label %6, label %12

6:                                                ; preds = %1
  %7 = getelementptr inbounds nuw i8, ptr %3, i64 8
  %8 = load i32, ptr %7, align 1, !tbaa !68
  %.not = icmp eq i32 %8, 0
  br i1 %.not, label %12, label %9

9:                                                ; preds = %6
  %10 = getelementptr inbounds nuw i8, ptr %3, i64 12
  %11 = load i32, ptr %10, align 1, !tbaa !68
  %.not4 = icmp eq i32 %11, 0
  br i1 %.not4, label %12, label %13

12:                                               ; preds = %9, %6, %1
  br label %13

13:                                               ; preds = %9, %12
  %.0 = phi i32 [ 0, %12 ], [ 99, %9 ]
  ret i32 %.0
}